; Function Attrs: nounwind uwtable
define internal fastcc noundef nonnull ptr @max5data(i64 noundef %0, ptr noundef nonnull returned %1) unnamed_addr #0 {
  %3 = icmp slt i64 %0, 100000
  br i1 %3, label %4, label %6

4:                                                ; preds = %2
  %5 = tail call i32 (ptr, i64, ptr, ...) @curl_msnprintf(ptr noundef nonnull %1, i64 noundef 6, ptr noundef nonnull @.str.9, i64 noundef %0) #8
  br label %43

6:                                                ; preds = %2
  %7 = icmp samesign ult i64 %0, 10240000
  br i1 %7, label %8, label %11

8:                                                ; preds = %6
  %9 = lshr i64 %0, 10
  %10 = tail call i32 (ptr, i64, ptr, ...) @curl_msnprintf(ptr noundef nonnull %1, i64 noundef 6, ptr noundef nonnull @.str.10, i64 noundef %9) #8
  br label %43

11:                                               ; preds = %6
  %12 = icmp samesign ult i64 %0, 104857600
  br i1 %12, label %13, label %18

13:                                               ; preds = %11
  %14 = lshr i64 %0, 20
  %15 = trunc nuw i64 %0 to i32
  %.lhs.trunc = and i32 %15, 1048575
  %16 = udiv i32 %.lhs.trunc, 104857
  %.zext = zext nneg i32 %16 to i64
  %17 = tail call i32 (ptr, i64, ptr, ...) @curl_msnprintf(ptr noundef nonnull %1, i64 noundef 6, ptr noundef nonnull @.str.11, i64 noundef %14, i64 noundef %.zext) #8
  br label %43

18:                                               ; preds = %11
  %19 = icmp samesign ult i64 %0, 10485760000
  br i1 %19, label %20, label %23

20:                                               ; preds = %18
  %21 = lshr i64 %0, 20
  %22 = tail call i32 (ptr, i64, ptr, ...) @curl_msnprintf(ptr noundef nonnull %1, i64 noundef 6, ptr noundef nonnull @.str.12, i64 noundef %21) #8
  br label %43

23:                                               ; preds = %18
  %24 = icmp samesign ult i64 %0, 107374182400
  br i1 %24, label %25, label %30

25:                                               ; preds = %23
  %26 = lshr i64 %0, 30
  %27 = trunc i64 %0 to i32
  %.lhs.trunc25 = and i32 %27, 1073741822
  %28 = udiv i32 %.lhs.trunc25, 107374182
  %.zext26 = zext nneg i32 %28 to i64
  %29 = tail call i32 (ptr, i64, ptr, ...) @curl_msnprintf(ptr noundef nonnull %1, i64 noundef 6, ptr noundef nonnull @.str.13, i64 noundef %26, i64 noundef %.zext26) #8
  br label %43

30:                                               ; preds = %23
  %31 = icmp samesign ult i64 %0, 10737418240000
  br i1 %31, label %32, label %35

32:                                               ; preds = %30
  %33 = lshr i64 %0, 30
  %34 = tail call i32 (ptr, i64, ptr, ...) @curl_msnprintf(ptr noundef nonnull %1, i64 noundef 6, ptr noundef nonnull @.str.14, i64 noundef %33) #8
  br label %43

35:                                               ; preds = %30
  %36 = icmp samesign ult i64 %0, 10995116277760000
  br i1 %36, label %37, label %40

37:                                               ; preds = %35
  %38 = lshr i64 %0, 40
  %39 = tail call i32 (ptr, i64, ptr, ...) @curl_msnprintf(ptr noundef nonnull %1, i64 noundef 6, ptr noundef nonnull @.str.15, i64 noundef %38) #8
  br label %43

40:                                               ; preds = %35
  %41 = lshr i64 %0, 50
  %42 = tail call i32 (ptr, i64, ptr, ...) @curl_msnprintf(ptr noundef nonnull %1, i64 noundef 6, ptr noundef nonnull @.str.16, i64 noundef %41) #8
  br label %43

43:                                               ; preds = %8, %20, %32, %40, %37, %25, %13, %4
  ret ptr %1
}